target datalayout = "e-m:e-p270:32:32-p271:32:32-p272:64:64-i64:64-i128:128-f80:128-n8:16:32:64-S128"
target triple = "x86_64-pc-linux-gnu"

%"class.arrow_vendored::double_conversion::Bignum" = type { i16, i16, [128 x i32] }

; Function Attrs: mustprogress nounwind uwtable
define noundef nonnull align 4 dereferenceable(4) ptr @_ZNK14arrow_vendored17double_conversion6Bignum8RawBigitEi(ptr noundef nonnull align 4 dereferenceable(516) %0, i32 noundef %1) #0 align 2 {
  %3 = alloca ptr, align 8
  %4 = alloca i32, align 4
  store ptr %0, ptr %3, align 8, !tbaa !3
  store i32 %1, ptr %4, align 4, !tbaa !8
  %5 = load ptr, ptr %3, align 8
  %6 = getelementptr inbounds nuw %"class.arrow_vendored::double_conversion::Bignum", ptr %5, i32 0, i32 2
  %7 = load i32, ptr %4, align 4, !tbaa !8
  %8 = sext i32 %7 to i64
  %9 = getelementptr inbounds [128 x i32], ptr %6, i64 0, i64 %8
  ret ptr %9
}

; Function Attrs: mustprogress uwtable
define noundef i32 @_ZNK14arrow_vendored17double_conversion6Bignum11BigitOrZeroEi(ptr noundef nonnull align 4 dereferenceable(516) %0, i32 noundef %1) #1 align 2 {
  %3 = alloca i32, align 4
  %4 = alloca ptr, align 8
  %5 = alloca i32, align 4
  store ptr %0, ptr %4, align 8, !tbaa !3
  store i32 %1, ptr %5, align 4, !tbaa !8
  %6 = load ptr, ptr %4, align 8
  %7 = load i32, ptr %5, align 4, !tbaa !8
  %8 = call noundef i32 @_ZNK14arrow_vendored17double_conversion6Bignum11BigitLengthEv(ptr noundef nonnull align 4 dereferenceable(516) %6)
  %9 = icmp sge i32 %7, %8
  br i1 %9, label %10, label %11

10:                                               ; preds = %2
  store i32 0, ptr %3, align 4
  br label %26

11:                                               ; preds = %2
  %12 = load i32, ptr %5, align 4, !tbaa !8
  %13 = getelementptr inbounds nuw %"class.arrow_vendored::double_conversion::Bignum", ptr %6, i32 0, i32 1
  %14 = load i16, ptr %13, align 2, !tbaa !14
  %15 = sext i16 %14 to i32
  %16 = icmp slt i32 %12, %15
  br i1 %16, label %17, label %18

17:                                               ; preds = %11
  store i32 0, ptr %3, align 4
  br label %26

18:                                               ; preds = %11
  %19 = load i32, ptr %5, align 4, !tbaa !8
  %20 = getelementptr inbounds nuw %"class.arrow_vendored::double_conversion::Bignum", ptr %6, i32 0, i32 1
  %21 = load i16, ptr %20, align 2, !tbaa !14
  %22 = sext i16 %21 to i32
  %23 = sub nsw i32 %19, %22
  %24 = call noundef nonnull align 4 dereferenceable(4) ptr @_ZNK14arrow_vendored17double_conversion6Bignum8RawBigitEi(ptr noundef nonnull align 4 dereferenceable(516) %6, i32 noundef %23)
  %25 = load i32, ptr %24, align 4, !tbaa !8
  store i32 %25, ptr %3, align 4
  br label %26

26:                                               ; preds = %18, %17, %10
  %27 = load i32, ptr %3, align 4
  ret i32 %27
}

; Function Attrs: inlinehint mustprogress nounwind uwtable
define linkonce_odr noundef nonnull align 2 dereferenceable(2) ptr @_ZSt3minIsERKT_S2_S2_(ptr noundef nonnull align 2 dereferenceable(2) %0, ptr noundef nonnull align 2 dereferenceable(2) %1) #4 comdat {
  %3 = alloca ptr, align 8
  %4 = alloca ptr, align 8
  %5 = alloca ptr, align 8
  store ptr %0, ptr %4, align 8, !tbaa !75
  store ptr %1, ptr %5, align 8, !tbaa !75
  %6 = load ptr, ptr %5, align 8, !tbaa !75
  %7 = load i16, ptr %6, align 2, !tbaa !10
  %8 = sext i16 %7 to i32
  %9 = load ptr, ptr %4, align 8, !tbaa !75
  %10 = load i16, ptr %9, align 2, !tbaa !10
  %11 = sext i16 %10 to i32
  %12 = icmp slt i32 %8, %11
  br i1 %12, label %13, label %15

13:                                               ; preds = %2
  %14 = load ptr, ptr %5, align 8, !tbaa !75
  store ptr %14, ptr %3, align 8
  br label %17

15:                                               ; preds = %2
  %16 = load ptr, ptr %4, align 8, !tbaa !75
  store ptr %16, ptr %3, align 8
  br label %17

17:                                               ; preds = %15, %13
  %18 = load ptr, ptr %3, align 8
  ret ptr %18
}

; Function Attrs: mustprogress nounwind uwtable
define linkonce_odr noundef i32 @_ZNK14arrow_vendored17double_conversion6Bignum11BigitLengthEv(ptr noundef nonnull align 4 dereferenceable(516) %0) #0 comdat align 2 {
  %2 = alloca ptr, align 8
  store ptr %0, ptr %2, align 8, !tbaa !3
  %3 = load ptr, ptr %2, align 8
  %4 = getelementptr inbounds nuw %"class.arrow_vendored::double_conversion::Bignum", ptr %3, i32 0, i32 0
  %5 = load i16, ptr %4, align 4, !tbaa !12
  %6 = sext i16 %5 to i32
  %7 = getelementptr inbounds nuw %"class.arrow_vendored::double_conversion::Bignum", ptr %3, i32 0, i32 1
  %8 = load i16, ptr %7, align 2, !tbaa !14
  %9 = sext i16 %8 to i32
  %10 = add nsw i32 %6, %9
  ret i32 %10
}

; Function Attrs: mustprogress uwtable
define noundef i32 @_ZN14arrow_vendored17double_conversion6Bignum11PlusCompareERKS1_S3_S3_(ptr noundef nonnull align 4 dereferenceable(516) %0, ptr noundef nonnull align 4 dereferenceable(516) %1, ptr noundef nonnull align 4 dereferenceable(516) %2) #1 align 2 {
  %4 = alloca i32, align 4
  %5 = alloca ptr, align 8
  %6 = alloca ptr, align 8
  %7 = alloca ptr, align 8
  %8 = alloca i32, align 4
  %9 = alloca i32, align 4
  %10 = alloca i32, align 4
  %11 = alloca i32, align 4
  %12 = alloca i32, align 4
  %13 = alloca i32, align 4
  %14 = alloca i32, align 4
  %15 = alloca i32, align 4
  store ptr %0, ptr %5, align 8, !tbaa !3
  store ptr %1, ptr %6, align 8, !tbaa !3
  store ptr %2, ptr %7, align 8, !tbaa !3
  %16 = load ptr, ptr %5, align 8, !tbaa !3
  %17 = call noundef i32 @_ZNK14arrow_vendored17double_conversion6Bignum11BigitLengthEv(ptr noundef nonnull align 4 dereferenceable(516) %16)
  %18 = load ptr, ptr %6, align 8, !tbaa !3
  %19 = call noundef i32 @_ZNK14arrow_vendored17double_conversion6Bignum11BigitLengthEv(ptr noundef nonnull align 4 dereferenceable(516) %18)
  %20 = icmp slt i32 %17, %19
  br i1 %20, label %21, label %26

21:                                               ; preds = %3
  %22 = load ptr, ptr %6, align 8, !tbaa !3
  %23 = load ptr, ptr %5, align 8, !tbaa !3
  %24 = load ptr, ptr %7, align 8, !tbaa !3
  %25 = call noundef i32 @_ZN14arrow_vendored17double_conversion6Bignum11PlusCompareERKS1_S3_S3_(ptr noundef nonnull align 4 dereferenceable(516) %22, ptr noundef nonnull align 4 dereferenceable(516) %23, ptr noundef nonnull align 4 dereferenceable(516) %24)
  store i32 %25, ptr %4, align 4
  br label %121

26:                                               ; preds = %3
  %27 = load ptr, ptr %5, align 8, !tbaa !3
  %28 = call noundef i32 @_ZNK14arrow_vendored17double_conversion6Bignum11BigitLengthEv(ptr noundef nonnull align 4 dereferenceable(516) %27)
  %29 = add nsw i32 %28, 1
  %30 = load ptr, ptr %7, align 8, !tbaa !3
  %31 = call noundef i32 @_ZNK14arrow_vendored17double_conversion6Bignum11BigitLengthEv(ptr noundef nonnull align 4 dereferenceable(516) %30)
  %32 = icmp slt i32 %29, %31
  br i1 %32, label %33, label %34

33:                                               ; preds = %26
  store i32 -1, ptr %4, align 4
  br label %121

34:                                               ; preds = %26
  %35 = load ptr, ptr %5, align 8, !tbaa !3
  %36 = call noundef i32 @_ZNK14arrow_vendored17double_conversion6Bignum11BigitLengthEv(ptr noundef nonnull align 4 dereferenceable(516) %35)
  %37 = load ptr, ptr %7, align 8, !tbaa !3
  %38 = call noundef i32 @_ZNK14arrow_vendored17double_conversion6Bignum11BigitLengthEv(ptr noundef nonnull align 4 dereferenceable(516) %37)
  %39 = icmp sgt i32 %36, %38
  br i1 %39, label %40, label %41

40:                                               ; preds = %34
  store i32 1, ptr %4, align 4
  br label %121

41:                                               ; preds = %34
  %42 = load ptr, ptr %5, align 8, !tbaa !3
  %43 = getelementptr inbounds nuw %"class.arrow_vendored::double_conversion::Bignum", ptr %42, i32 0, i32 1
  %44 = load i16, ptr %43, align 2, !tbaa !14
  %45 = sext i16 %44 to i32
  %46 = load ptr, ptr %6, align 8, !tbaa !3
  %47 = call noundef i32 @_ZNK14arrow_vendored17double_conversion6Bignum11BigitLengthEv(ptr noundef nonnull align 4 dereferenceable(516) %46)
  %48 = icmp sge i32 %45, %47
  br i1 %48, label %49, label %56

49:                                               ; preds = %41
  %50 = load ptr, ptr %5, align 8, !tbaa !3
  %51 = call noundef i32 @_ZNK14arrow_vendored17double_conversion6Bignum11BigitLengthEv(ptr noundef nonnull align 4 dereferenceable(516) %50)
  %52 = load ptr, ptr %7, align 8, !tbaa !3
  %53 = call noundef i32 @_ZNK14arrow_vendored17double_conversion6Bignum11BigitLengthEv(ptr noundef nonnull align 4 dereferenceable(516) %52)
  %54 = icmp slt i32 %51, %53
  br i1 %54, label %55, label %56

55:                                               ; preds = %49
  store i32 -1, ptr %4, align 4
  br label %121

56:                                               ; preds = %49, %41
  call void @llvm.lifetime.start.p0(i64 4, ptr %8) #6
  store i32 0, ptr %8, align 4, !tbaa !8
  call void @llvm.lifetime.start.p0(i64 4, ptr %9) #6
  %57 = load ptr, ptr %5, align 8, !tbaa !3
  %58 = getelementptr inbounds nuw %"class.arrow_vendored::double_conversion::Bignum", ptr %57, i32 0, i32 1
  %59 = load ptr, ptr %6, align 8, !tbaa !3
  %60 = getelementptr inbounds nuw %"class.arrow_vendored::double_conversion::Bignum", ptr %59, i32 0, i32 1
  %61 = call noundef nonnull align 2 dereferenceable(2) ptr @_ZSt3minIsERKT_S2_S2_(ptr noundef nonnull align 2 dereferenceable(2) %58, ptr noundef nonnull align 2 dereferenceable(2) %60)
  %62 = load ptr, ptr %7, align 8, !tbaa !3
  %63 = getelementptr inbounds nuw %"class.arrow_vendored::double_conversion::Bignum", ptr %62, i32 0, i32 1
  %64 = call noundef nonnull align 2 dereferenceable(2) ptr @_ZSt3minIsERKT_S2_S2_(ptr noundef nonnull align 2 dereferenceable(2) %61, ptr noundef nonnull align 2 dereferenceable(2) %63)
  %65 = load i16, ptr %64, align 2, !tbaa !10
  %66 = sext i16 %65 to i32
  store i32 %66, ptr %9, align 4, !tbaa !8
  call void @llvm.lifetime.start.p0(i64 4, ptr %10) #6
  %67 = load ptr, ptr %7, align 8, !tbaa !3
  %68 = call noundef i32 @_ZNK14arrow_vendored17double_conversion6Bignum11BigitLengthEv(ptr noundef nonnull align 4 dereferenceable(516) %67)
  %69 = sub nsw i32 %68, 1
  store i32 %69, ptr %10, align 4, !tbaa !8
  br label %70

70:                                               ; preds = %110, %56
  %71 = load i32, ptr %10, align 4, !tbaa !8
  %72 = load i32, ptr %9, align 4, !tbaa !8
  %73 = icmp sge i32 %71, %72
  br i1 %73, label %75, label %74

74:                                               ; preds = %70
  store i32 2, ptr %11, align 4
  br label %113

75:                                               ; preds = %70
  call void @llvm.lifetime.start.p0(i64 4, ptr %12) #6
  %76 = load ptr, ptr %5, align 8, !tbaa !3
  %77 = load i32, ptr %10, align 4, !tbaa !8
  %78 = call noundef i32 @_ZNK14arrow_vendored17double_conversion6Bignum11BigitOrZeroEi(ptr noundef nonnull align 4 dereferenceable(516) %76, i32 noundef %77)
  store i32 %78, ptr %12, align 4, !tbaa !8
  call void @llvm.lifetime.start.p0(i64 4, ptr %13) #6
  %79 = load ptr, ptr %6, align 8, !tbaa !3
  %80 = load i32, ptr %10, align 4, !tbaa !8
  %81 = call noundef i32 @_ZNK14arrow_vendored17double_conversion6Bignum11BigitOrZeroEi(ptr noundef nonnull align 4 dereferenceable(516) %79, i32 noundef %80)
  store i32 %81, ptr %13, align 4, !tbaa !8
  call void @llvm.lifetime.start.p0(i64 4, ptr %14) #6
  %82 = load ptr, ptr %7, align 8, !tbaa !3
  %83 = load i32, ptr %10, align 4, !tbaa !8
  %84 = call noundef i32 @_ZNK14arrow_vendored17double_conversion6Bignum11BigitOrZeroEi(ptr noundef nonnull align 4 dereferenceable(516) %82, i32 noundef %83)
  store i32 %84, ptr %14, align 4, !tbaa !8
  call void @llvm.lifetime.start.p0(i64 4, ptr %15) #6
  %85 = load i32, ptr %12, align 4, !tbaa !8
  %86 = load i32, ptr %13, align 4, !tbaa !8
  %87 = add i32 %85, %86
  store i32 %87, ptr %15, align 4, !tbaa !8
  %88 = load i32, ptr %15, align 4, !tbaa !8
  %89 = load i32, ptr %14, align 4, !tbaa !8
  %90 = load i32, ptr %8, align 4, !tbaa !8
  %91 = add i32 %89, %90
  %92 = icmp ugt i32 %88, %91
  br i1 %92, label %93, label %94

93:                                               ; preds = %75
  store i32 1, ptr %4, align 4
  store i32 1, ptr %11, align 4
  br label %107

94:                                               ; preds = %75
  %95 = load i32, ptr %14, align 4, !tbaa !8
  %96 = load i32, ptr %8, align 4, !tbaa !8
  %97 = add i32 %95, %96
  %98 = load i32, ptr %15, align 4, !tbaa !8
  %99 = sub i32 %97, %98
  store i32 %99, ptr %8, align 4, !tbaa !8
  %100 = load i32, ptr %8, align 4, !tbaa !8
  %101 = icmp ugt i32 %100, 1
  br i1 %101, label %102, label %103

102:                                              ; preds = %94
  store i32 -1, ptr %4, align 4
  store i32 1, ptr %11, align 4
  br label %107

103:                                              ; preds = %94
  %104 = load i32, ptr %8, align 4, !tbaa !8
  %105 = shl i32 %104, 28
  store i32 %105, ptr %8, align 4, !tbaa !8
  br label %106

106:                                              ; preds = %103
  store i32 0, ptr %11, align 4
  br label %107

107:                                              ; preds = %106, %102, %93
  call void @llvm.lifetime.end.p0(i64 4, ptr %15) #6
  call void @llvm.lifetime.end.p0(i64 4, ptr %14) #6
  call void @llvm.lifetime.end.p0(i64 4, ptr %13) #6
  call void @llvm.lifetime.end.p0(i64 4, ptr %12) #6
  %108 = load i32, ptr %11, align 4
  switch i32 %108, label %113 [
    i32 0, label %109
  ]

109:                                              ; preds = %107
  br label %110

110:                                              ; preds = %109
  %111 = load i32, ptr %10, align 4, !tbaa !8
  %112 = add nsw i32 %111, -1
  store i32 %112, ptr %10, align 4, !tbaa !8
  br label %70, !llvm.loop !77

113:                                              ; preds = %107, %74
  call void @llvm.lifetime.end.p0(i64 4, ptr %10) #6
  %114 = load i32, ptr %11, align 4
  switch i32 %114, label %120 [
    i32 2, label %115
  ]

115:                                              ; preds = %113
  %116 = load i32, ptr %8, align 4, !tbaa !8
  %117 = icmp eq i32 %116, 0
  br i1 %117, label %118, label %119

118:                                              ; preds = %115
  store i32 0, ptr %4, align 4
  store i32 1, ptr %11, align 4
  br label %120

119:                                              ; preds = %115
  store i32 -1, ptr %4, align 4
  store i32 1, ptr %11, align 4
  br label %120

120:                                              ; preds = %119, %118, %113
  call void @llvm.lifetime.end.p0(i64 4, ptr %9) #6
  call void @llvm.lifetime.end.p0(i64 4, ptr %8) #6
  br label %121

121:                                              ; preds = %120, %55, %40, %33, %21
  %122 = load i32, ptr %4, align 4
  ret i32 %122
}